; Function Attrs: mustprogress uwtable
define hidden void @_ZN3smt10theory_str25generate_mutual_exclusionER10ref_vectorI4expr11ast_managerE(ptr noundef nonnull readonly align 8 captures(none) dereferenceable(1800) %0, ptr noundef nonnull readonly align 8 captures(none) dereferenceable(16) %1) local_unnamed_addr #4 align 2 personality ptr @__gxx_personality_v0 {
  %3 = alloca %class.svector.262, align 8
  call void @llvm.lifetime.start.p0(i64 8, ptr nonnull %3) #25
  store ptr null, ptr %3, align 8, !tbaa !1145
  %4 = getelementptr inbounds nuw i8, ptr %1, i64 8
  %5 = load ptr, ptr %4, align 8, !tbaa !167
  %6 = icmp eq ptr %5, null
  br i1 %6, label %_ZNK6vectorIN3sat7literalELb0EjE4sizeEv.exit, label %_ZNK15ref_vector_coreI4expr19ref_manager_wrapperIS0_11ast_managerEE3endEv.exit

_ZNK15ref_vector_coreI4expr19ref_manager_wrapperIS0_11ast_managerEE3endEv.exit: ; preds = %2
  %7 = getelementptr inbounds i8, ptr %5, i64 -4
  %8 = load i32, ptr %7, align 4, !tbaa !336
  %9 = zext i32 %8 to i64
  %10 = getelementptr inbounds nuw ptr, ptr %5, i64 %9
  %.not17 = icmp eq i32 %8, 0
  br i1 %.not17, label %_ZNK6vectorIN3sat7literalELb0EjE4sizeEv.exit, label %.lr.ph

.lr.ph:                                           ; preds = %_ZNK15ref_vector_coreI4expr19ref_manager_wrapperIS0_11ast_managerEE3endEv.exit
  %11 = getelementptr inbounds nuw i8, ptr %0, i64 16
  br label %17

12:                                               ; preds = %31
  %13 = getelementptr inbounds i8, ptr %33, i64 -4
  %14 = load i32, ptr %13, align 4, !tbaa !336
  br label %_ZNK6vectorIN3sat7literalELb0EjE4sizeEv.exit

_ZNK6vectorIN3sat7literalELb0EjE4sizeEv.exit:     ; preds = %2, %_ZNK15ref_vector_coreI4expr19ref_manager_wrapperIS0_11ast_managerEE3endEv.exit, %12
  %15 = phi ptr [ %33, %12 ], [ null, %_ZNK15ref_vector_coreI4expr19ref_manager_wrapperIS0_11ast_managerEE3endEv.exit ], [ null, %2 ]
  %.0.i = phi i32 [ %14, %12 ], [ 0, %_ZNK15ref_vector_coreI4expr19ref_manager_wrapperIS0_11ast_managerEE3endEv.exit ], [ 0, %2 ]
  %.in = getelementptr inbounds nuw i8, ptr %0, i64 16
  %16 = load ptr, ptr %.in, align 8, !tbaa !386
  invoke void @_ZN3smt7context16mk_th_case_splitEjPN3sat7literalE(ptr noundef nonnull align 8 dereferenceable(10544) %16, i32 noundef %.0.i, ptr noundef %15)
          to label %41 unwind label %48

17:                                               ; preds = %.lr.ph, %31
  %.018 = phi ptr [ %5, %.lr.ph ], [ %38, %31 ]
  %18 = load ptr, ptr %.018, align 8, !tbaa !337
  %19 = load ptr, ptr %11, align 8, !tbaa !386
  %20 = invoke i32 @_ZNK3smt7context11get_literalEP4expr(ptr noundef nonnull align 8 dereferenceable(10544) %19, ptr noundef %18)
          to label %21 unwind label %39

21:                                               ; preds = %17
  %22 = load ptr, ptr %3, align 8, !tbaa !1145
  %23 = icmp eq ptr %22, null
  br i1 %23, label %30, label %24

24:                                               ; preds = %21
  %25 = getelementptr inbounds i8, ptr %22, i64 -4
  %26 = load i32, ptr %25, align 4, !tbaa !336
  %27 = getelementptr inbounds i8, ptr %22, i64 -8
  %28 = load i32, ptr %27, align 4, !tbaa !336
  %29 = icmp eq i32 %26, %28
  br i1 %29, label %30, label %31

30:                                               ; preds = %24, %21
  invoke void @_ZN6vectorIN3sat7literalELb0EjE13expand_vectorEv(ptr noundef nonnull align 8 dereferenceable(8) %3)
          to label %.noexc unwind label %39

.noexc:                                           ; preds = %30
  %.pre.i = load ptr, ptr %3, align 8, !tbaa !1145
  %.phi.trans.insert.i = getelementptr inbounds i8, ptr %.pre.i, i64 -4
  %.pre2.i = load i32, ptr %.phi.trans.insert.i, align 4, !tbaa !336
  br label %31

31:                                               ; preds = %.noexc, %24
  %32 = phi i32 [ %.pre2.i, %.noexc ], [ %26, %24 ]
  %33 = phi ptr [ %.pre.i, %.noexc ], [ %22, %24 ]
  %34 = getelementptr inbounds i8, ptr %33, i64 -4
  %35 = zext i32 %32 to i64
  %36 = getelementptr inbounds nuw %"class.sat::literal", ptr %33, i64 %35
  store i32 %20, ptr %36, align 4, !tbaa !336
  %37 = add i32 %32, 1
  store i32 %37, ptr %34, align 4, !tbaa !336
  %38 = getelementptr inbounds nuw i8, ptr %.018, i64 8
  %.not = icmp eq ptr %38, %10
  br i1 %.not, label %12, label %17

39:                                               ; preds = %30, %17
  %40 = landingpad { ptr, i32 }
          cleanup
  br label %50

41:                                               ; preds = %_ZNK6vectorIN3sat7literalELb0EjE4sizeEv.exit
  %42 = load ptr, ptr %3, align 8, !tbaa !1145
  %.not.i.i = icmp eq ptr %42, null
  br i1 %.not.i.i, label %_ZN6vectorIN3sat7literalELb0EjED2Ev.exit, label %43

43:                                               ; preds = %41
  %44 = getelementptr inbounds i8, ptr %42, i64 -8
  invoke void @_ZN6memory10deallocateEPv(ptr noundef nonnull %44)
          to label %_ZN6vectorIN3sat7literalELb0EjED2Ev.exit unwind label %45

45:                                               ; preds = %43
  %46 = landingpad { ptr, i32 }
          catch ptr null
  %47 = extractvalue { ptr, i32 } %46, 0
  call void @__clang_call_terminate(ptr %47) #26
  unreachable

_ZN6vectorIN3sat7literalELb0EjED2Ev.exit:         ; preds = %41, %43
  call void @llvm.lifetime.end.p0(i64 8, ptr nonnull %3) #25
  ret void

48:                                               ; preds = %_ZNK6vectorIN3sat7literalELb0EjE4sizeEv.exit
  %49 = landingpad { ptr, i32 }
          cleanup
  br label %50

50:                                               ; preds = %39, %48
  %.pn.pn.pn = phi { ptr, i32 } [ %49, %48 ], [ %40, %39 ]
  call void @_ZN6vectorIN3sat7literalELb0EjED2Ev(ptr noundef nonnull align 8 dereferenceable(8) %3) #25
  call void @llvm.lifetime.end.p0(i64 8, ptr nonnull %3) #25
  resume { ptr, i32 } %.pn.pn.pn
}